target datalayout = "e-m:e-p270:32:32-p271:32:32-p272:64:64-i64:64-i128:128-f80:128-n8:16:32:64-S128"
target triple = "x86_64-unknown-linux-gnu"

%"class.std::set.0" = type { %"class.std::_Rb_tree.1" }
%"class.std::_Rb_tree.1" = type { %"struct.std::_Rb_tree<QuantLib::Observer *, QuantLib::Observer *, std::_Identity<QuantLib::Observer *>, std::less<QuantLib::Observer *>>::_Rb_tree_impl" }
%"struct.std::_Rb_tree<QuantLib::Observer *, QuantLib::Observer *, std::_Identity<QuantLib::Observer *>, std::less<QuantLib::Observer *>>::_Rb_tree_impl" = type { [8 x i8], %"struct.std::_Rb_tree_header" }
%"struct.std::_Rb_tree_header" = type { %"struct.std::_Rb_tree_node_base", i64 }
%"struct.std::_Rb_tree_node_base" = type { i32, ptr, ptr, ptr }
%"class.QuantLib::Date" = type { i64 }
%"class.boost::detail::shared_count" = type { ptr }
%"class.std::set" = type { %"class.std::_Rb_tree" }
%"class.std::_Rb_tree" = type { %"struct.std::_Rb_tree<boost::shared_ptr<QuantLib::Observable>, boost::shared_ptr<QuantLib::Observable>, std::_Identity<boost::shared_ptr<QuantLib::Observable>>, std::less<boost::shared_ptr<QuantLib::Observable>>>::_Rb_tree_impl" }
%"struct.std::_Rb_tree<boost::shared_ptr<QuantLib::Observable>, boost::shared_ptr<QuantLib::Observable>, std::_Identity<boost::shared_ptr<QuantLib::Observable>>, std::less<boost::shared_ptr<QuantLib::Observable>>>::_Rb_tree_impl" = type { [8 x i8], %"struct.std::_Rb_tree_header" }
%"class.QuantLib::Observable" = type { ptr, %"class.std::set.0" }
%"class.QuantLib::LazyObject" = type <{ ptr, i8, i8, i8, i8, [4 x i8], %"class.QuantLib::Observable", %"class.QuantLib::Observer" }>
%"class.QuantLib::Observer" = type { ptr, %"class.std::set" }
%"class.QuantLib::ForwardSwapQuote" = type { %"class.QuantLib::Quote.base", %"class.QuantLib::LazyObject.base", %"class.boost::shared_ptr.18", %"class.QuantLib::Handle", %"class.QuantLib::Period", %"class.QuantLib::Date", %"class.QuantLib::Date", %"class.QuantLib::Date", %"class.QuantLib::Date", %"class.boost::shared_ptr.20", double, %"class.QuantLib::Observable", %"class.QuantLib::Observer" }
%"class.QuantLib::Quote.base" = type { ptr }
%"class.QuantLib::LazyObject.base" = type <{ ptr, i8, i8, i8, i8 }>
%"class.boost::shared_ptr.18" = type { ptr, %"class.boost::detail::shared_count" }
%"class.QuantLib::Handle" = type { %"class.boost::shared_ptr.19" }
%"class.boost::shared_ptr.19" = type { ptr, %"class.boost::detail::shared_count" }
%"class.QuantLib::Period" = type { i32, i32 }
%"class.boost::shared_ptr.20" = type { ptr, %"class.boost::detail::shared_count" }
%"class.boost::shared_ptr.53" = type { ptr, %"class.boost::detail::shared_count" }
%"class.QuantLib::Handle<QuantLib::Quote>::Link" = type <{ %"class.QuantLib::Observable", %"class.QuantLib::Observer", %"class.boost::shared_ptr.53", i8, [7 x i8] }>

@.str.5 = private unnamed_addr constant [8 x i8] c"px != 0\00", align 1
@.str.6 = private unnamed_addr constant [102 x i8] c"generated/home/dtcxzyw/WorkSpace/SDK/vcpkg/installed/x64-linux/include/boost/smart_ptr/shared_ptr.hpp\00", align 1
@__PRETTY_FUNCTION__._ZNK5boost10shared_ptrIN8QuantLib11VanillaSwapEEptEv = private unnamed_addr constant [139 x i8] c"typename boost::detail::sp_member_access<T>::type boost::shared_ptr<QuantLib::VanillaSwap>::operator->() const [T = QuantLib::VanillaSwap]\00", align 1
@__PRETTY_FUNCTION__._ZNK5boost10shared_ptrIN8QuantLib5QuoteEEptEv = private unnamed_addr constant [127 x i8] c"typename boost::detail::sp_member_access<T>::type boost::shared_ptr<QuantLib::Quote>::operator->() const [T = QuantLib::Quote]\00", align 1

; Function Attrs: mustprogress nounwind uwtable
define linkonce_odr noundef zeroext i1 @_ZNK5boost10shared_ptrIN8QuantLib5QuoteEEntEv(ptr noundef nonnull align 8 dereferenceable(16) %this) #1 comdat align 2 {
entry:
  %this.addr = alloca ptr, align 8
  store ptr %this, ptr %this.addr, align 8, !tbaa !3
  %this1 = load ptr, ptr %this.addr, align 8
  %px = getelementptr inbounds nuw %"class.boost::shared_ptr.53", ptr %this1, i32 0, i32 0
  %0 = load ptr, ptr %px, align 8, !tbaa !72
  %cmp = icmp eq ptr %0, null
  ret i1 %cmp
}

; Function Attrs: mustprogress nounwind uwtable
define linkonce_odr noundef zeroext i1 @_ZNK8QuantLib6HandleINS_5QuoteEE4Link5emptyEv(ptr noundef nonnull align 8 dereferenceable(129) %this) #1 comdat align 2 {
entry:
  %this.addr = alloca ptr, align 8
  store ptr %this, ptr %this.addr, align 8, !tbaa !3
  %this1 = load ptr, ptr %this.addr, align 8
  %h_ = getelementptr inbounds nuw %"class.QuantLib::Handle<QuantLib::Quote>::Link", ptr %this1, i32 0, i32 2
  %call = call noundef zeroext i1 @_ZNK5boost10shared_ptrIN8QuantLib5QuoteEEntEv(ptr noundef nonnull align 8 dereferenceable(16) %h_) #13
  ret i1 %call
}

; Function Attrs: mustprogress uwtable
define linkonce_odr noundef ptr @_ZNK5boost10shared_ptrIN8QuantLib6HandleINS1_5QuoteEE4LinkEEptEv(ptr noundef nonnull align 8 dereferenceable(16) %this) #2 comdat align 2 {
entry:
  %this.addr = alloca ptr, align 8
  store ptr %this, ptr %this.addr, align 8, !tbaa !3
  %this1 = load ptr, ptr %this.addr, align 8
  %px = getelementptr inbounds nuw %"class.boost::shared_ptr.19", ptr %this1, i32 0, i32 0
  %0 = load ptr, ptr %px, align 8, !tbaa !100
  %cmp = icmp ne ptr %0, null
  %lnot = xor i1 %cmp, true
  %lnot2 = xor i1 %lnot, true
  %conv = zext i1 %lnot2 to i64
  %expval = call i64 @llvm.expect.i64(i64 %conv, i64 1)
  %tobool = icmp ne i64 %expval, 0
  br i1 %tobool, label %cond.true, label %cond.false

cond.true:                                        ; preds = %entry
  br label %cond.end

cond.false:                                       ; preds = %entry
  call void @_ZN5boost16assertion_failedEPKcS1_S1_l(ptr noundef @.str.5, ptr noundef @__PRETTY_FUNCTION__._ZNK5boost10shared_ptrIN8QuantLib6HandleINS1_5QuoteEE4LinkEEptEv, ptr noundef @.str.6, i64 noundef 784)
  br label %cond.end

cond.end:                                         ; preds = %cond.false, %cond.true
  %px3 = getelementptr inbounds nuw %"class.boost::shared_ptr.19", ptr %this1, i32 0, i32 0
  %1 = load ptr, ptr %px3, align 8, !tbaa !100
  ret ptr %1
}

; Function Attrs: mustprogress uwtable
define linkonce_odr noundef ptr @_ZNK5boost10shared_ptrIN8QuantLib5QuoteEEptEv(ptr noundef nonnull align 8 dereferenceable(16) %this) #2 comdat align 2 {
entry:
  %this.addr = alloca ptr, align 8
  store ptr %this, ptr %this.addr, align 8, !tbaa !3
  %this1 = load ptr, ptr %this.addr, align 8
  %px = getelementptr inbounds nuw %"class.boost::shared_ptr.53", ptr %this1, i32 0, i32 0
  %0 = load ptr, ptr %px, align 8, !tbaa !72
  %cmp = icmp ne ptr %0, null
  %lnot = xor i1 %cmp, true
  %lnot2 = xor i1 %lnot, true
  %conv = zext i1 %lnot2 to i64
  %expval = call i64 @llvm.expect.i64(i64 %conv, i64 1)
  %tobool = icmp ne i64 %expval, 0
  br i1 %tobool, label %cond.true, label %cond.false

cond.true:                                        ; preds = %entry
  br label %cond.end

cond.false:                                       ; preds = %entry
  call void @_ZN5boost16assertion_failedEPKcS1_S1_l(ptr noundef @.str.5, ptr noundef @__PRETTY_FUNCTION__._ZNK5boost10shared_ptrIN8QuantLib5QuoteEEptEv, ptr noundef @.str.6, i64 noundef 784)
  br label %cond.end

cond.end:                                         ; preds = %cond.false, %cond.true
  %px3 = getelementptr inbounds nuw %"class.boost::shared_ptr.53", ptr %this1, i32 0, i32 0
  %1 = load ptr, ptr %px3, align 8, !tbaa !72
  ret ptr %1
}

; Function Attrs: inlinehint mustprogress uwtable
define linkonce_odr noundef zeroext i1 @_ZNK8QuantLib6HandleINS_5QuoteEE5emptyEv(ptr noundef nonnull align 8 dereferenceable(16) %this) #4 comdat align 2 {
entry:
  %this.addr = alloca ptr, align 8
  store ptr %this, ptr %this.addr, align 8, !tbaa !3
  %this1 = load ptr, ptr %this.addr, align 8
  %link_ = getelementptr inbounds nuw %"class.QuantLib::Handle", ptr %this1, i32 0, i32 0
  %call = call noundef ptr @_ZNK5boost10shared_ptrIN8QuantLib6HandleINS1_5QuoteEE4LinkEEptEv(ptr noundef nonnull align 8 dereferenceable(16) %link_)
  %call2 = call noundef zeroext i1 @_ZNK8QuantLib6HandleINS_5QuoteEE4Link5emptyEv(ptr noundef nonnull align 8 dereferenceable(129) %call)
  ret i1 %call2
}

; Function Attrs: inlinehint mustprogress uwtable
define linkonce_odr void @_ZN8QuantLib10LazyObject11recalculateEv(ptr noundef nonnull align 8 dereferenceable(12) %this) #4 comdat align 2 personality ptr @__gxx_personality_v0 {
entry:
  %this.addr = alloca ptr, align 8
  %wasFrozen = alloca i8, align 1
  %exn.slot = alloca ptr, align 8
  %ehselector.slot = alloca i32, align 4
  store ptr %this, ptr %this.addr, align 8, !tbaa !3
  %this1 = load ptr, ptr %this.addr, align 8
  call void @llvm.lifetime.start.p0(i64 1, ptr %wasFrozen) #13
  %frozen_ = getelementptr inbounds nuw %"class.QuantLib::LazyObject", ptr %this1, i32 0, i32 2
  %0 = load i8, ptr %frozen_, align 1, !tbaa !19, !range !15, !noundef !16
  %loadedv = trunc i8 %0 to i1
  %storedv = zext i1 %loadedv to i8
  store i8 %storedv, ptr %wasFrozen, align 1, !tbaa !36
  %frozen_2 = getelementptr inbounds nuw %"class.QuantLib::LazyObject", ptr %this1, i32 0, i32 2
  store i8 0, ptr %frozen_2, align 1, !tbaa !19
  %calculated_ = getelementptr inbounds nuw %"class.QuantLib::LazyObject", ptr %this1, i32 0, i32 1
  store i8 0, ptr %calculated_, align 8, !tbaa !17
  %vtable = load ptr, ptr %this1, align 8, !tbaa !20
  %vfn = getelementptr inbounds ptr, ptr %vtable, i64 3
  %1 = load ptr, ptr %vfn, align 8
  invoke void %1(ptr noundef nonnull align 8 dereferenceable(12) %this1)
          to label %invoke.cont unwind label %lpad

invoke.cont:                                      ; preds = %entry
  br label %try.cont

lpad:                                             ; preds = %entry
  %2 = landingpad { ptr, i32 }
          catch ptr null
  %3 = extractvalue { ptr, i32 } %2, 0
  store ptr %3, ptr %exn.slot, align 8
  %4 = extractvalue { ptr, i32 } %2, 1
  store i32 %4, ptr %ehselector.slot, align 4
  br label %catch

catch:                                            ; preds = %lpad
  %exn = load ptr, ptr %exn.slot, align 8
  %5 = call ptr @__cxa_begin_catch(ptr %exn) #13
  %6 = load i8, ptr %wasFrozen, align 1, !tbaa !36, !range !15, !noundef !16
  %loadedv3 = trunc i8 %6 to i1
  %frozen_4 = getelementptr inbounds nuw %"class.QuantLib::LazyObject", ptr %this1, i32 0, i32 2
  %storedv5 = zext i1 %loadedv3 to i8
  store i8 %storedv5, ptr %frozen_4, align 1, !tbaa !19
  %vtable6 = load ptr, ptr %this1, align 8, !tbaa !20
  %vbase.offset.ptr = getelementptr i8, ptr %vtable6, i64 -24
  %vbase.offset = load i64, ptr %vbase.offset.ptr, align 8
  %add.ptr = getelementptr inbounds i8, ptr %this1, i64 %vbase.offset
  invoke void @_ZN8QuantLib10Observable15notifyObserversEv(ptr noundef nonnull align 8 dereferenceable(56) %add.ptr)
          to label %invoke.cont8 unwind label %lpad7

invoke.cont8:                                     ; preds = %catch
  invoke void @__cxa_rethrow() #23
          to label %unreachable unwind label %lpad7

lpad7:                                            ; preds = %invoke.cont8, %catch
  %7 = landingpad { ptr, i32 }
          cleanup
  %8 = extractvalue { ptr, i32 } %7, 0
  store ptr %8, ptr %exn.slot, align 8
  %9 = extractvalue { ptr, i32 } %7, 1
  store i32 %9, ptr %ehselector.slot, align 4
  invoke void @__cxa_end_catch()
          to label %invoke.cont9 unwind label %terminate.lpad

invoke.cont9:                                     ; preds = %lpad7
  call void @llvm.lifetime.end.p0(i64 1, ptr %wasFrozen) #13
  br label %eh.resume

try.cont:                                         ; preds = %invoke.cont
  %10 = load i8, ptr %wasFrozen, align 1, !tbaa !36, !range !15, !noundef !16
  %loadedv10 = trunc i8 %10 to i1
  %frozen_11 = getelementptr inbounds nuw %"class.QuantLib::LazyObject", ptr %this1, i32 0, i32 2
  %storedv12 = zext i1 %loadedv10 to i8
  store i8 %storedv12, ptr %frozen_11, align 1, !tbaa !19
  %vtable13 = load ptr, ptr %this1, align 8, !tbaa !20
  %vbase.offset.ptr14 = getelementptr i8, ptr %vtable13, i64 -24
  %vbase.offset15 = load i64, ptr %vbase.offset.ptr14, align 8
  %add.ptr16 = getelementptr inbounds i8, ptr %this1, i64 %vbase.offset15
  call void @_ZN8QuantLib10Observable15notifyObserversEv(ptr noundef nonnull align 8 dereferenceable(56) %add.ptr16)
  call void @llvm.lifetime.end.p0(i64 1, ptr %wasFrozen) #13
  ret void

eh.resume:                                        ; preds = %invoke.cont9
  %exn17 = load ptr, ptr %exn.slot, align 8
  %sel = load i32, ptr %ehselector.slot, align 4
  %lpad.val = insertvalue { ptr, i32 } poison, ptr %exn17, 0
  %lpad.val18 = insertvalue { ptr, i32 } %lpad.val, i32 %sel, 1
  resume { ptr, i32 } %lpad.val18

terminate.lpad:                                   ; preds = %lpad7
  %11 = landingpad { ptr, i32 }
          catch ptr null
  %12 = extractvalue { ptr, i32 } %11, 0
  call void @__clang_call_terminate(ptr %12) #21
  unreachable

unreachable:                                      ; preds = %invoke.cont8
  unreachable
}

; Function Attrs: mustprogress uwtable
define linkonce_odr noundef ptr @_ZNK5boost10shared_ptrIN8QuantLib11VanillaSwapEEptEv(ptr noundef nonnull align 8 dereferenceable(16) %this) #2 comdat align 2 {
entry:
  %this.addr = alloca ptr, align 8
  store ptr %this, ptr %this.addr, align 8, !tbaa !3
  %this1 = load ptr, ptr %this.addr, align 8
  %px = getelementptr inbounds nuw %"class.boost::shared_ptr.20", ptr %this1, i32 0, i32 0
  %0 = load ptr, ptr %px, align 8, !tbaa !34
  %cmp = icmp ne ptr %0, null
  %lnot = xor i1 %cmp, true
  %lnot2 = xor i1 %lnot, true
  %conv = zext i1 %lnot2 to i64
  %expval = call i64 @llvm.expect.i64(i64 %conv, i64 1)
  %tobool = icmp ne i64 %expval, 0
  br i1 %tobool, label %cond.true, label %cond.false

cond.true:                                        ; preds = %entry
  br label %cond.end

cond.false:                                       ; preds = %entry
  call void @_ZN5boost16assertion_failedEPKcS1_S1_l(ptr noundef @.str.5, ptr noundef @__PRETTY_FUNCTION__._ZNK5boost10shared_ptrIN8QuantLib11VanillaSwapEEptEv, ptr noundef @.str.6, i64 noundef 784)
  br label %cond.end

cond.end:                                         ; preds = %cond.false, %cond.true
  %px3 = getelementptr inbounds nuw %"class.boost::shared_ptr.20", ptr %this1, i32 0, i32 0
  %1 = load ptr, ptr %px3, align 8, !tbaa !34
  ret ptr %1
}

; Function Attrs: mustprogress uwtable
define noundef zeroext i1 @_ZNK8QuantLib16ForwardSwapQuote7isValidEv(ptr noundef nonnull align 8 dereferenceable(120) %this) unnamed_addr #2 align 2 personality ptr @__gxx_personality_v0 {
entry:
  %this.addr = alloca ptr, align 8
  %swapIndexIsValid = alloca i8, align 1
  %exn.slot = alloca ptr, align 8
  %ehselector.slot = alloca i32, align 4
  %spreadIsValid = alloca i8, align 1
  store ptr %this, ptr %this.addr, align 8, !tbaa !3
  %this1 = load ptr, ptr %this.addr, align 8
  call void @llvm.lifetime.start.p0(i64 1, ptr %swapIndexIsValid) #13
  store i8 1, ptr %swapIndexIsValid, align 1, !tbaa !36
  %swap_ = getelementptr inbounds nuw %"class.QuantLib::ForwardSwapQuote", ptr %this1, i32 0, i32 9
  %call = invoke noundef ptr @_ZNK5boost10shared_ptrIN8QuantLib11VanillaSwapEEptEv(ptr noundef nonnull align 8 dereferenceable(16) %swap_)
          to label %invoke.cont unwind label %lpad

invoke.cont:                                      ; preds = %entry
  invoke void @_ZN8QuantLib10LazyObject11recalculateEv(ptr noundef nonnull align 8 dereferenceable(12) %call)
          to label %invoke.cont2 unwind label %lpad

invoke.cont2:                                     ; preds = %invoke.cont
  br label %try.cont

lpad:                                             ; preds = %invoke.cont, %entry
  %0 = landingpad { ptr, i32 }
          catch ptr null
  %1 = extractvalue { ptr, i32 } %0, 0
  store ptr %1, ptr %exn.slot, align 8
  %2 = extractvalue { ptr, i32 } %0, 1
  store i32 %2, ptr %ehselector.slot, align 4
  br label %catch

catch:                                            ; preds = %lpad
  %exn = load ptr, ptr %exn.slot, align 8
  %3 = call ptr @__cxa_begin_catch(ptr %exn) #13
  store i8 0, ptr %swapIndexIsValid, align 1, !tbaa !36
  call void @__cxa_end_catch()
  br label %try.cont

try.cont:                                         ; preds = %catch, %invoke.cont2
  call void @llvm.lifetime.start.p0(i64 1, ptr %spreadIsValid) #13
  %spread_ = getelementptr inbounds nuw %"class.QuantLib::ForwardSwapQuote", ptr %this1, i32 0, i32 3
  %call3 = call noundef zeroext i1 @_ZNK8QuantLib6HandleINS_5QuoteEE5emptyEv(ptr noundef nonnull align 8 dereferenceable(16) %spread_)
  br i1 %call3, label %cond.true, label %cond.false

cond.true:                                        ; preds = %try.cont
  br label %cond.end

cond.false:                                       ; preds = %try.cont
  %spread_4 = getelementptr inbounds nuw %"class.QuantLib::ForwardSwapQuote", ptr %this1, i32 0, i32 3
  %call5 = call noundef nonnull align 8 dereferenceable(16) ptr @_ZNK8QuantLib6HandleINS_5QuoteEEptEv(ptr noundef nonnull align 8 dereferenceable(16) %spread_4)
  %call6 = call noundef ptr @_ZNK5boost10shared_ptrIN8QuantLib5QuoteEEptEv(ptr noundef nonnull align 8 dereferenceable(16) %call5)
  %vtable = load ptr, ptr %call6, align 8, !tbaa !20
  %vfn = getelementptr inbounds ptr, ptr %vtable, i64 3
  %4 = load ptr, ptr %vfn, align 8
  %call7 = call noundef zeroext i1 %4(ptr noundef nonnull align 8 dereferenceable(8) %call6)
  br label %cond.end

cond.end:                                         ; preds = %cond.false, %cond.true
  %cond = phi i1 [ true, %cond.true ], [ %call7, %cond.false ]
  %storedv = zext i1 %cond to i8
  store i8 %storedv, ptr %spreadIsValid, align 1, !tbaa !36
  %5 = load i8, ptr %swapIndexIsValid, align 1, !tbaa !36, !range !15, !noundef !16
  %loadedv = trunc i8 %5 to i1
  br i1 %loadedv, label %land.rhs, label %land.end

land.rhs:                                         ; preds = %cond.end
  %6 = load i8, ptr %spreadIsValid, align 1, !tbaa !36, !range !15, !noundef !16
  %loadedv8 = trunc i8 %6 to i1
  br label %land.end

land.end:                                         ; preds = %land.rhs, %cond.end
  %7 = phi i1 [ false, %cond.end ], [ %loadedv8, %land.rhs ]
  call void @llvm.lifetime.end.p0(i64 1, ptr %spreadIsValid) #13
  call void @llvm.lifetime.end.p0(i64 1, ptr %swapIndexIsValid) #13
  ret i1 %7
}