; Function Attrs: mustprogress uwtable
define noundef zeroext i1 @_ZNK8QuantLib16ForwardSwapQuote7isValidEv(ptr noundef nonnull align 8 dereferenceable(120) %this) unnamed_addr #8 align 2 personality ptr @__gxx_personality_v0 {
entry:
  %swap_ = getelementptr inbounds nuw i8, ptr %this, i64 96
  %0 = load ptr, ptr %swap_, align 8, !tbaa !83
  %cmp.not.i = icmp eq ptr %0, null
  br i1 %cmp.not.i, label %cond.false.i, label %invoke.cont, !prof !63

cond.false.i:                                     ; preds = %entry
  invoke void @_ZN5boost16assertion_failedEPKcS1_S1_l(ptr noundef nonnull @.str.5, ptr noundef nonnull @__PRETTY_FUNCTION__._ZNK5boost10shared_ptrIN8QuantLib11VanillaSwapEEptEv, ptr noundef nonnull @.str.6, i64 noundef 784)
          to label %.noexc unwind label %lpad

.noexc:                                           ; preds = %cond.false.i
  %.pre.i = load ptr, ptr %swap_, align 8, !tbaa !83
  br label %invoke.cont

invoke.cont:                                      ; preds = %.noexc, %entry
  %1 = phi ptr [ %0, %entry ], [ %.pre.i, %.noexc ]
  %frozen_.i = getelementptr inbounds nuw i8, ptr %1, i64 9
  %2 = load i8, ptr %frozen_.i, align 1, !tbaa !32, !range !26, !noundef !27
  store i8 0, ptr %frozen_.i, align 1, !tbaa !32
  %calculated_.i = getelementptr inbounds nuw i8, ptr %1, i64 8
  store i8 0, ptr %calculated_.i, align 8, !tbaa !30
  %vtable.i = load ptr, ptr %1, align 8, !tbaa !33
  %vfn.i = getelementptr inbounds i8, ptr %vtable.i, i64 24
  %3 = load ptr, ptr %vfn.i, align 8
  invoke void %3(ptr noundef nonnull align 8 dereferenceable(12) %1)
          to label %try.cont.i unwind label %lpad.i

lpad.i:                                           ; preds = %invoke.cont
  %4 = landingpad { ptr, i32 }
          catch ptr null
  %5 = extractvalue { ptr, i32 } %4, 0
  %6 = tail call ptr @__cxa_begin_catch(ptr %5) #25
  store i8 %2, ptr %frozen_.i, align 1, !tbaa !32
  %vtable6.i = load ptr, ptr %1, align 8, !tbaa !33
  %vbase.offset.ptr.i = getelementptr i8, ptr %vtable6.i, i64 -24
  %vbase.offset.i = load i64, ptr %vbase.offset.ptr.i, align 8
  %add.ptr.i = getelementptr inbounds i8, ptr %1, i64 %vbase.offset.i
  invoke void @_ZN8QuantLib10Observable15notifyObserversEv(ptr noundef nonnull align 8 dereferenceable(56) %add.ptr.i)
          to label %invoke.cont8.i unwind label %lpad7.i

invoke.cont8.i:                                   ; preds = %lpad.i
  invoke void @__cxa_rethrow() #27
          to label %unreachable.i unwind label %lpad7.i

lpad7.i:                                          ; preds = %invoke.cont8.i, %lpad.i
  %7 = landingpad { ptr, i32 }
          catch ptr null
  invoke void @__cxa_end_catch()
          to label %lpad.body unwind label %terminate.lpad.i

try.cont.i:                                       ; preds = %invoke.cont
  store i8 %2, ptr %frozen_.i, align 1, !tbaa !32
  %vtable13.i = load ptr, ptr %1, align 8, !tbaa !33
  %vbase.offset.ptr14.i = getelementptr i8, ptr %vtable13.i, i64 -24
  %vbase.offset15.i = load i64, ptr %vbase.offset.ptr14.i, align 8
  %add.ptr16.i = getelementptr inbounds i8, ptr %1, i64 %vbase.offset15.i
  invoke void @_ZN8QuantLib10Observable15notifyObserversEv(ptr noundef nonnull align 8 dereferenceable(56) %add.ptr16.i)
          to label %try.cont unwind label %lpad

terminate.lpad.i:                                 ; preds = %lpad7.i
  %8 = landingpad { ptr, i32 }
          catch ptr null
  %9 = extractvalue { ptr, i32 } %8, 0
  tail call void @__clang_call_terminate(ptr %9) #26
  unreachable

unreachable.i:                                    ; preds = %invoke.cont8.i
  unreachable

lpad:                                             ; preds = %try.cont.i, %cond.false.i
  %10 = landingpad { ptr, i32 }
          catch ptr null
  br label %lpad.body

lpad.body:                                        ; preds = %lpad7.i, %lpad
  %eh.lpad-body = phi { ptr, i32 } [ %10, %lpad ], [ %7, %lpad7.i ]
  %11 = extractvalue { ptr, i32 } %eh.lpad-body, 0
  %12 = tail call ptr @__cxa_begin_catch(ptr %11) #25
  tail call void @__cxa_end_catch()
  br label %try.cont

try.cont:                                         ; preds = %try.cont.i, %lpad.body
  %swapIndexIsValid.0 = phi i1 [ false, %lpad.body ], [ true, %try.cont.i ]
  %spread_ = getelementptr inbounds nuw i8, ptr %this, i64 40
  %13 = load ptr, ptr %spread_, align 8, !tbaa !48
  %cmp.not.i.i = icmp eq ptr %13, null
  br i1 %cmp.not.i.i, label %cond.false.i.i, label %_ZNK8QuantLib6HandleINS_5QuoteEE5emptyEv.exit, !prof !63

cond.false.i.i:                                   ; preds = %try.cont
  tail call void @_ZN5boost16assertion_failedEPKcS1_S1_l(ptr noundef nonnull @.str.5, ptr noundef nonnull @__PRETTY_FUNCTION__._ZNK5boost10shared_ptrIN8QuantLib6HandleINS1_5QuoteEE4LinkEEptEv, ptr noundef nonnull @.str.6, i64 noundef 784)
  %.pre.i.i = load ptr, ptr %spread_, align 8, !tbaa !48
  br label %_ZNK8QuantLib6HandleINS_5QuoteEE5emptyEv.exit

_ZNK8QuantLib6HandleINS_5QuoteEE5emptyEv.exit:    ; preds = %try.cont, %cond.false.i.i
  %14 = phi ptr [ %13, %try.cont ], [ %.pre.i.i, %cond.false.i.i ]
  %h_.i.i = getelementptr inbounds nuw i8, ptr %14, i64 112
  %15 = load ptr, ptr %h_.i.i, align 8, !tbaa !96
  %cmp.i.i.i = icmp eq ptr %15, null
  br i1 %cmp.i.i.i, label %cond.end, label %cond.false

cond.false:                                       ; preds = %_ZNK8QuantLib6HandleINS_5QuoteEE5emptyEv.exit
  %call5 = tail call noundef nonnull align 8 dereferenceable(16) ptr @_ZNK8QuantLib6HandleINS_5QuoteEEptEv(ptr noundef nonnull align 8 dereferenceable(16) %spread_)
  %16 = load ptr, ptr %call5, align 8, !tbaa !96
  %cmp.not.i2 = icmp eq ptr %16, null
  br i1 %cmp.not.i2, label %cond.false.i3, label %_ZNK5boost10shared_ptrIN8QuantLib5QuoteEEptEv.exit, !prof !63

cond.false.i3:                                    ; preds = %cond.false
  tail call void @_ZN5boost16assertion_failedEPKcS1_S1_l(ptr noundef nonnull @.str.5, ptr noundef nonnull @__PRETTY_FUNCTION__._ZNK5boost10shared_ptrIN8QuantLib5QuoteEEptEv, ptr noundef nonnull @.str.6, i64 noundef 784)
  %.pre.i4 = load ptr, ptr %call5, align 8, !tbaa !96
  br label %_ZNK5boost10shared_ptrIN8QuantLib5QuoteEEptEv.exit

_ZNK5boost10shared_ptrIN8QuantLib5QuoteEEptEv.exit: ; preds = %cond.false, %cond.false.i3
  %17 = phi ptr [ %16, %cond.false ], [ %.pre.i4, %cond.false.i3 ]
  %vtable = load ptr, ptr %17, align 8, !tbaa !33
  %vfn = getelementptr inbounds i8, ptr %vtable, i64 24
  %18 = load ptr, ptr %vfn, align 8
  %call7 = tail call noundef zeroext i1 %18(ptr noundef nonnull align 8 dereferenceable(8) %17)
  br label %cond.end

cond.end:                                         ; preds = %_ZNK8QuantLib6HandleINS_5QuoteEE5emptyEv.exit, %_ZNK5boost10shared_ptrIN8QuantLib5QuoteEEptEv.exit
  %cond = phi i1 [ %call7, %_ZNK5boost10shared_ptrIN8QuantLib5QuoteEEptEv.exit ], [ true, %_ZNK8QuantLib6HandleINS_5QuoteEE5emptyEv.exit ]
  %19 = and i1 %swapIndexIsValid.0, %cond
  ret i1 %19
}